target datalayout = "e-m:e-p270:32:32-p271:32:32-p272:64:64-i64:64-i128:128-f80:128-n8:16:32:64-S128"
target triple = "x86_64-pc-linux-gnu"

@.str = private unnamed_addr constant [2 x i8] c"=\00", align 1
@.str.1 = private unnamed_addr constant [7 x i8] c"sortby\00", align 1
@.str.2 = private unnamed_addr constant [6 x i8] c"reads\00", align 1
@sort_by = internal global i32 0, align 4
@.str.3 = private unnamed_addr constant [7 x i8] c"writes\00", align 1
@.str.4 = private unnamed_addr constant [8 x i8] c"address\00", align 1
@stderr = external global ptr, align 8
@.str.5 = private unnamed_addr constant [29 x i8] c"invalid value to sortby: %s\0A\00", align 1
@.str.6 = private unnamed_addr constant [3 x i8] c"io\00", align 1
@track_io = internal global i8 0, align 1
@.str.7 = private unnamed_addr constant [37 x i8] c"boolean argument parsing failed: %s\0A\00", align 1
@.str.8 = private unnamed_addr constant [9 x i8] c"pagesize\00", align 1
@page_size = internal global i64 4096, align 8
@.str.9 = private unnamed_addr constant [27 x i8] c"option parsing failed: %s\0A\00", align 1
@page_mask = internal global i64 0, align 8
@pages = internal global ptr null, align 8

; Function Attrs: nounwind sspstrong uwtable
define internal void @plugin_init() #0 {
  %1 = load i64, ptr @page_size, align 8
  %2 = sub i64 %1, 1
  store i64 %2, ptr @page_mask, align 8
  %3 = call ptr @g_hash_table_new(ptr noundef @g_int64_hash, ptr noundef @g_int64_equal)
  store ptr %3, ptr @pages, align 8
  ret void
}

; Function Attrs: inlinehint nounwind sspstrong uwtable
define internal void @glib_auto_cleanup_GStrv(ptr noundef %0) #3 {
  %2 = alloca ptr, align 8
  store ptr %0, ptr %2, align 8
  %3 = load ptr, ptr %2, align 8
  %4 = load ptr, ptr %3, align 8
  %5 = icmp ne ptr %4, null
  br i1 %5, label %6, label %9

6:                                                ; preds = %1
  %7 = load ptr, ptr %2, align 8
  %8 = load ptr, ptr %7, align 8
  call void @g_strfreev(ptr noundef %8)
  br label %9

9:                                                ; preds = %6, %1
  ret void
}

; Function Attrs: nounwind sspstrong uwtable
define i32 @qemu_plugin_install(i64 noundef %0, ptr noundef %1, i32 noundef %2, ptr noundef %3) #0 {
  %5 = alloca i32, align 4
  %6 = alloca i64, align 8
  %7 = alloca ptr, align 8
  %8 = alloca i32, align 4
  %9 = alloca ptr, align 8
  %10 = alloca i32, align 4
  %11 = alloca ptr, align 8
  %12 = alloca ptr, align 8
  %13 = alloca i32, align 4
  store i64 %0, ptr %6, align 8
  store ptr %1, ptr %7, align 8
  store i32 %2, ptr %8, align 4
  store ptr %3, ptr %9, align 8
  call void @llvm.lifetime.start.p0(i64 4, ptr %10) #9
  store i32 0, ptr %10, align 4, !annotation !3
  store i32 0, ptr %10, align 4
  br label %14

14:                                               ; preds = %101, %4
  %15 = load i32, ptr %10, align 4
  %16 = load i32, ptr %8, align 4
  %17 = icmp slt i32 %15, %16
  br i1 %17, label %18, label %104

18:                                               ; preds = %14
  call void @llvm.lifetime.start.p0(i64 8, ptr %11) #9
  %19 = load ptr, ptr %9, align 8
  %20 = load i32, ptr %10, align 4
  %21 = sext i32 %20 to i64
  %22 = getelementptr inbounds ptr, ptr %19, i64 %21
  %23 = load ptr, ptr %22, align 8
  store ptr %23, ptr %11, align 8
  call void @llvm.lifetime.start.p0(i64 8, ptr %12) #9
  %24 = load ptr, ptr %11, align 8
  %25 = call ptr @g_strsplit(ptr noundef %24, ptr noundef @.str, i32 noundef -1)
  store ptr %25, ptr %12, align 8
  %26 = load ptr, ptr %12, align 8
  %27 = getelementptr inbounds ptr, ptr %26, i64 0
  %28 = load ptr, ptr %27, align 8
  %29 = call i32 @g_strcmp0(ptr noundef %28, ptr noundef @.str.1)
  %30 = icmp eq i32 %29, 0
  br i1 %30, label %31, label %61

31:                                               ; preds = %18
  %32 = load ptr, ptr %12, align 8
  %33 = getelementptr inbounds ptr, ptr %32, i64 1
  %34 = load ptr, ptr %33, align 8
  %35 = call i32 @g_strcmp0(ptr noundef %34, ptr noundef @.str.2)
  %36 = icmp eq i32 %35, 0
  br i1 %36, label %37, label %38

37:                                               ; preds = %31
  store i32 1, ptr @sort_by, align 4
  br label %60

38:                                               ; preds = %31
  %39 = load ptr, ptr %12, align 8
  %40 = getelementptr inbounds ptr, ptr %39, i64 1
  %41 = load ptr, ptr %40, align 8
  %42 = call i32 @g_strcmp0(ptr noundef %41, ptr noundef @.str.3)
  %43 = icmp eq i32 %42, 0
  br i1 %43, label %44, label %45

44:                                               ; preds = %38
  store i32 2, ptr @sort_by, align 4
  br label %59

45:                                               ; preds = %38
  %46 = load ptr, ptr %12, align 8
  %47 = getelementptr inbounds ptr, ptr %46, i64 1
  %48 = load ptr, ptr %47, align 8
  %49 = call i32 @g_strcmp0(ptr noundef %48, ptr noundef @.str.4)
  %50 = icmp eq i32 %49, 0
  br i1 %50, label %51, label %52

51:                                               ; preds = %45
  store i32 3, ptr @sort_by, align 4
  br label %58

52:                                               ; preds = %45
  %53 = load ptr, ptr @stderr, align 8
  %54 = load ptr, ptr %12, align 8
  %55 = getelementptr inbounds ptr, ptr %54, i64 1
  %56 = load ptr, ptr %55, align 8
  %57 = call i32 (ptr, ptr, ...) @fprintf(ptr noundef %53, ptr noundef @.str.5, ptr noundef %56) #9
  store i32 -1, ptr %5, align 4
  store i32 1, ptr %13, align 4
  br label %98

58:                                               ; preds = %51
  br label %59

59:                                               ; preds = %58, %44
  br label %60

60:                                               ; preds = %59, %37
  br label %97

61:                                               ; preds = %18
  %62 = load ptr, ptr %12, align 8
  %63 = getelementptr inbounds ptr, ptr %62, i64 0
  %64 = load ptr, ptr %63, align 8
  %65 = call i32 @g_strcmp0(ptr noundef %64, ptr noundef @.str.6)
  %66 = icmp eq i32 %65, 0
  br i1 %66, label %67, label %80

67:                                               ; preds = %61
  %68 = load ptr, ptr %12, align 8
  %69 = getelementptr inbounds ptr, ptr %68, i64 0
  %70 = load ptr, ptr %69, align 8
  %71 = load ptr, ptr %12, align 8
  %72 = getelementptr inbounds ptr, ptr %71, i64 1
  %73 = load ptr, ptr %72, align 8
  %74 = call zeroext i1 @qemu_plugin_bool_parse(ptr noundef %70, ptr noundef %73, ptr noundef @track_io)
  br i1 %74, label %79, label %75

75:                                               ; preds = %67
  %76 = load ptr, ptr @stderr, align 8
  %77 = load ptr, ptr %11, align 8
  %78 = call i32 (ptr, ptr, ...) @fprintf(ptr noundef %76, ptr noundef @.str.7, ptr noundef %77) #9
  store i32 -1, ptr %5, align 4
  store i32 1, ptr %13, align 4
  br label %98

79:                                               ; preds = %67
  br label %96

80:                                               ; preds = %61
  %81 = load ptr, ptr %12, align 8
  %82 = getelementptr inbounds ptr, ptr %81, i64 0
  %83 = load ptr, ptr %82, align 8
  %84 = call i32 @g_strcmp0(ptr noundef %83, ptr noundef @.str.8)
  %85 = icmp eq i32 %84, 0
  br i1 %85, label %86, label %91

86:                                               ; preds = %80
  %87 = load ptr, ptr %12, align 8
  %88 = getelementptr inbounds ptr, ptr %87, i64 1
  %89 = load ptr, ptr %88, align 8
  %90 = call i64 @g_ascii_strtoull(ptr noundef %89, ptr noundef null, i32 noundef 10)
  store i64 %90, ptr @page_size, align 8
  br label %95

91:                                               ; preds = %80
  %92 = load ptr, ptr @stderr, align 8
  %93 = load ptr, ptr %11, align 8
  %94 = call i32 (ptr, ptr, ...) @fprintf(ptr noundef %92, ptr noundef @.str.9, ptr noundef %93) #9
  store i32 -1, ptr %5, align 4
  store i32 1, ptr %13, align 4
  br label %98

95:                                               ; preds = %86
  br label %96

96:                                               ; preds = %95, %79
  br label %97

97:                                               ; preds = %96, %60
  store i32 0, ptr %13, align 4
  br label %98

98:                                               ; preds = %97, %91, %75, %52
  call void @glib_auto_cleanup_GStrv(ptr noundef %12)
  call void @llvm.lifetime.end.p0(i64 8, ptr %12) #9
  call void @llvm.lifetime.end.p0(i64 8, ptr %11) #9
  %99 = load i32, ptr %13, align 4
  switch i32 %99, label %107 [
    i32 0, label %100
  ]

100:                                              ; preds = %98
  br label %101

101:                                              ; preds = %100
  %102 = load i32, ptr %10, align 4
  %103 = add i32 %102, 1
  store i32 %103, ptr %10, align 4
  br label %14, !llvm.loop !4

104:                                              ; preds = %14
  call void @plugin_init()
  %105 = load i64, ptr %6, align 8
  call void @qemu_plugin_register_vcpu_tb_trans_cb(i64 noundef %105, ptr noundef @vcpu_tb_trans)
  %106 = load i64, ptr %6, align 8
  call void @qemu_plugin_register_atexit_cb(i64 noundef %106, ptr noundef @plugin_exit, ptr noundef null)
  store i32 0, ptr %5, align 4
  store i32 1, ptr %13, align 4
  br label %107

107:                                              ; preds = %104, %98
  call void @llvm.lifetime.end.p0(i64 4, ptr %10) #9
  %108 = load i32, ptr %5, align 4
  ret i32 %108
}