; Function Attrs: nounwind sspstrong uwtable
define range(i32 -1, 1) i32 @qemu_plugin_install(i64 noundef %0, ptr noundef readnone captures(none) %1, i32 noundef %2, ptr noundef readonly captures(none) %3) local_unnamed_addr #0 {
  %5 = icmp sgt i32 %2, 0
  br i1 %5, label %.lr.ph.preheader, label %._crit_edge

.lr.ph.preheader:                                 ; preds = %4
  %wide.trip.count = zext nneg i32 %2 to i64
  br label %.lr.ph

.lr.ph:                                           ; preds = %.lr.ph.preheader, %glib_auto_cleanup_GStrv.exit
  %indvars.iv = phi i64 [ 0, %.lr.ph.preheader ], [ %indvars.iv.next, %glib_auto_cleanup_GStrv.exit ]
  %6 = getelementptr inbounds nuw ptr, ptr %3, i64 %indvars.iv
  %7 = load ptr, ptr %6, align 8
  %8 = tail call ptr @g_strsplit(ptr noundef %7, ptr noundef nonnull @.str, i32 noundef -1) #6
  %9 = load ptr, ptr %8, align 8
  %10 = tail call i32 @g_strcmp0(ptr noundef %9, ptr noundef nonnull @.str.1) #6
  %11 = icmp eq i32 %10, 0
  br i1 %11, label %12, label %32

12:                                               ; preds = %.lr.ph
  %13 = getelementptr inbounds nuw i8, ptr %8, i64 8
  %14 = load ptr, ptr %13, align 8
  %15 = tail call i32 @g_strcmp0(ptr noundef %14, ptr noundef nonnull @.str.2) #6
  %16 = icmp eq i32 %15, 0
  br i1 %16, label %17, label %18

17:                                               ; preds = %12
  store i32 1, ptr @sort_by, align 4
  br label %glib_auto_cleanup_GStrv.exit

18:                                               ; preds = %12
  %19 = load ptr, ptr %13, align 8
  %20 = tail call i32 @g_strcmp0(ptr noundef %19, ptr noundef nonnull @.str.3) #6
  %21 = icmp eq i32 %20, 0
  br i1 %21, label %22, label %23

22:                                               ; preds = %18
  store i32 2, ptr @sort_by, align 4
  br label %glib_auto_cleanup_GStrv.exit

23:                                               ; preds = %18
  %24 = load ptr, ptr %13, align 8
  %25 = tail call i32 @g_strcmp0(ptr noundef %24, ptr noundef nonnull @.str.4) #6
  %26 = icmp eq i32 %25, 0
  br i1 %26, label %27, label %28

27:                                               ; preds = %23
  store i32 3, ptr @sort_by, align 4
  br label %glib_auto_cleanup_GStrv.exit

28:                                               ; preds = %23
  %29 = load ptr, ptr @stderr, align 8
  %30 = load ptr, ptr %13, align 8
  %31 = tail call i32 (ptr, ptr, ...) @fprintf(ptr noundef %29, ptr noundef nonnull @.str.5, ptr noundef %30) #7
  br label %glib_auto_cleanup_GStrv.exit15

32:                                               ; preds = %.lr.ph
  %33 = load ptr, ptr %8, align 8
  %34 = tail call i32 @g_strcmp0(ptr noundef %33, ptr noundef nonnull @.str.6) #6
  %35 = icmp eq i32 %34, 0
  %36 = load ptr, ptr %8, align 8
  br i1 %35, label %37, label %44

37:                                               ; preds = %32
  %38 = getelementptr inbounds nuw i8, ptr %8, i64 8
  %39 = load ptr, ptr %38, align 8
  %40 = tail call zeroext i1 @qemu_plugin_bool_parse(ptr noundef %36, ptr noundef %39, ptr noundef nonnull @track_io) #6
  br i1 %40, label %glib_auto_cleanup_GStrv.exit, label %41

41:                                               ; preds = %37
  %42 = load ptr, ptr @stderr, align 8
  %43 = tail call i32 (ptr, ptr, ...) @fprintf(ptr noundef %42, ptr noundef nonnull @.str.7, ptr noundef %7) #7
  br label %glib_auto_cleanup_GStrv.exit15

44:                                               ; preds = %32
  %45 = tail call i32 @g_strcmp0(ptr noundef %36, ptr noundef nonnull @.str.8) #6
  %46 = icmp eq i32 %45, 0
  br i1 %46, label %47, label %51

47:                                               ; preds = %44
  %48 = getelementptr inbounds nuw i8, ptr %8, i64 8
  %49 = load ptr, ptr %48, align 8
  %50 = tail call i64 @g_ascii_strtoull(ptr noundef %49, ptr noundef null, i32 noundef 10) #6
  store i64 %50, ptr @page_size, align 8
  br label %glib_auto_cleanup_GStrv.exit

51:                                               ; preds = %44
  %52 = load ptr, ptr @stderr, align 8
  %53 = tail call i32 (ptr, ptr, ...) @fprintf(ptr noundef %52, ptr noundef nonnull @.str.9, ptr noundef %7) #7
  br label %glib_auto_cleanup_GStrv.exit15

glib_auto_cleanup_GStrv.exit:                     ; preds = %22, %27, %17, %37, %47
  tail call void @g_strfreev(ptr noundef nonnull %8) #6
  %indvars.iv.next = add nuw nsw i64 %indvars.iv, 1
  %exitcond.not = icmp eq i64 %indvars.iv.next, %wide.trip.count
  br i1 %exitcond.not, label %._crit_edge, label %.lr.ph, !llvm.loop !3

._crit_edge:                                      ; preds = %glib_auto_cleanup_GStrv.exit, %4
  %54 = load i64, ptr @page_size, align 8
  %55 = add i64 %54, -1
  store i64 %55, ptr @page_mask, align 8
  %56 = tail call ptr @g_hash_table_new(ptr noundef nonnull @g_int64_hash, ptr noundef nonnull @g_int64_equal) #6
  store ptr %56, ptr @pages, align 8
  tail call void @qemu_plugin_register_vcpu_tb_trans_cb(i64 noundef %0, ptr noundef nonnull @vcpu_tb_trans) #6
  tail call void @qemu_plugin_register_atexit_cb(i64 noundef %0, ptr noundef nonnull @plugin_exit, ptr noundef null) #6
  br label %57

glib_auto_cleanup_GStrv.exit15:                   ; preds = %51, %41, %28
  tail call void @g_strfreev(ptr noundef nonnull %8) #6
  br label %57

57:                                               ; preds = %glib_auto_cleanup_GStrv.exit15, %._crit_edge
  %.2 = phi i32 [ 0, %._crit_edge ], [ -1, %glib_auto_cleanup_GStrv.exit15 ]
  ret i32 %.2
}